; Function Attrs: mustprogress nofree norecurse nosync nounwind willreturn memory(readwrite, inaccessiblemem: none) uwtable
define hidden void @_ZN19NullCheckEliminator18handle_LoadIndexedEP11LoadIndexed(ptr nocapture noundef nonnull align 8 dereferenceable(88) %0, ptr nocapture noundef %1) local_unnamed_addr #4 align 2 {
  %3 = getelementptr inbounds i8, ptr %1, i64 96
  %4 = load ptr, ptr %3, align 8
  %5 = getelementptr inbounds i8, ptr %0, i64 32
  %6 = load ptr, ptr %5, align 8
  %7 = getelementptr inbounds i8, ptr %4, i64 8
  %8 = load i32, ptr %7, align 8
  %9 = sext i32 %8 to i64
  %10 = load ptr, ptr %6, align 8
  %11 = lshr i64 %9, 6
  %12 = getelementptr inbounds i64, ptr %10, i64 %11
  %13 = load i64, ptr %12, align 8
  %14 = and i64 %9, 63
  %15 = shl nuw i64 1, %14
  %16 = and i64 %15, %13
  %.not = icmp eq i64 %16, 0
  br i1 %.not, label %43, label %17

17:                                               ; preds = %2
  %18 = getelementptr inbounds i8, ptr %0, i64 80
  %19 = load ptr, ptr %18, align 8
  %.not.i = icmp eq ptr %19, null
  br i1 %.not.i, label %_ZN19NullCheckEliminator28last_explicit_null_check_objEv.exit, label %20

20:                                               ; preds = %17
  %21 = getelementptr inbounds i8, ptr %19, i64 96
  %22 = load ptr, ptr %21, align 8
  br label %_ZN19NullCheckEliminator28last_explicit_null_check_objEv.exit

_ZN19NullCheckEliminator28last_explicit_null_check_objEv.exit: ; preds = %17, %20
  %23 = phi ptr [ %22, %20 ], [ null, %17 ]
  %24 = icmp eq ptr %23, %4
  br i1 %24, label %25, label %38

25:                                               ; preds = %_ZN19NullCheckEliminator28last_explicit_null_check_objEv.exit
  %26 = getelementptr inbounds i8, ptr %19, i64 16
  %27 = load i32, ptr %26, align 8
  %28 = and i32 %27, -9
  store i32 %28, ptr %26, align 8
  %29 = load ptr, ptr %18, align 8
  %30 = getelementptr inbounds i8, ptr %29, i64 56
  %31 = load i32, ptr %30, align 8
  %32 = and i32 %31, -3
  store i32 %32, ptr %30, align 8
  %33 = load ptr, ptr %18, align 8
  %34 = getelementptr inbounds i8, ptr %1, i64 128
  store ptr %33, ptr %34, align 8
  %35 = getelementptr inbounds i8, ptr %1, i64 56
  %36 = load i32, ptr %35, align 8
  %37 = or i32 %36, 1
  store i32 %37, ptr %35, align 8
  br label %49

38:                                               ; preds = %_ZN19NullCheckEliminator28last_explicit_null_check_objEv.exit
  %39 = getelementptr inbounds i8, ptr %1, i64 128
  store ptr null, ptr %39, align 8
  %40 = getelementptr inbounds i8, ptr %1, i64 56
  %41 = load i32, ptr %40, align 8
  %42 = and i32 %41, -2
  store i32 %42, ptr %40, align 8
  br label %49

43:                                               ; preds = %2
  %44 = or i64 %15, %13
  store i64 %44, ptr %12, align 8
  %45 = getelementptr inbounds i8, ptr %1, i64 56
  %46 = load i32, ptr %45, align 8
  %47 = or i32 %46, 1
  store i32 %47, ptr %45, align 8
  %48 = getelementptr inbounds i8, ptr %1, i64 128
  store ptr null, ptr %48, align 8
  br label %49

49:                                               ; preds = %25, %38, %43
  %50 = getelementptr inbounds i8, ptr %0, i64 80
  store ptr null, ptr %50, align 8
  ret void
}